; Function Attrs: mustprogress uwtable
define hidden void @_ZN7datalog3clpC2ERNS_7contextE(ptr noundef nonnull align 8 dereferenceable(56) %this, ptr noundef nonnull align 8 dereferenceable(3556) %ctx) unnamed_addr #3 align 2 personality ptr @__gxx_personality_v0 {
entry:
  %0 = load ptr, ptr %ctx, align 8
  tail call void @_ZN7datalog11engine_baseC2ER11ast_managerPKc(ptr noundef nonnull align 8 dereferenceable(48) %this, ptr noundef nonnull align 8 dereferenceable(976) %0, ptr noundef nonnull @.str)
  store ptr getelementptr inbounds ({ [26 x ptr] }, ptr @_ZTVN7datalog3clpE, i64 0, i32 0, i64 2), ptr %this, align 8
  %call2 = invoke noalias noundef ptr @_ZN6memory8allocateEm(i64 noundef 1432)
          to label %invoke.cont unwind label %lpad

invoke.cont:                                      ; preds = %entry
  invoke void @_ZN7datalog3clp3impC2ERNS_7contextE(ptr noundef nonnull align 8 dereferenceable(1428) %call2, ptr noundef nonnull align 8 dereferenceable(3556) %ctx)
          to label %invoke.cont3 unwind label %lpad

invoke.cont3:                                     ; preds = %invoke.cont
  %m_imp = getelementptr inbounds i8, ptr %this, i64 48
  store ptr %call2, ptr %m_imp, align 8
  ret void

lpad:                                             ; preds = %invoke.cont, %entry
  %1 = landingpad { ptr, i32 }
          cleanup
  store ptr getelementptr inbounds ({ [26 x ptr] }, ptr @_ZTVN7datalog11engine_baseE, i64 0, i32 0, i64 2), ptr %this, align 8
  %m_name.i = getelementptr inbounds i8, ptr %this, i64 16
  tail call void @_ZNSt7__cxx1112basic_stringIcSt11char_traitsIcESaIcEED1Ev(ptr noundef nonnull align 8 dereferenceable(32) %m_name.i) #20
  resume { ptr, i32 } %1
}